; Function Attrs: inlinehint mustprogress nounwind uwtable
define internal fastcc void @_ZNSt4pairIKN5Yosys5RTLIL8IdStringEN12_GLOBAL__N_112cell_mappingEED2Ev(ptr noundef nonnull align 8 dereferenceable(64) %0) unnamed_addr #7 align 2 personality ptr @__gxx_personality_v0 {
  %2 = getelementptr inbounds nuw i8, ptr %0, i64 16
  %3 = getelementptr inbounds nuw i8, ptr %0, i64 32
  %4 = load ptr, ptr %3, align 8, !tbaa !6
  invoke void @_ZNSt8_Rb_treeINSt7__cxx1112basic_stringIcSt11char_traitsIcESaIcEEESt4pairIKS5_cESt10_Select1stIS8_ESt4lessIS5_ESaIS8_EE8_M_eraseEPSt13_Rb_tree_nodeIS8_E(ptr noundef nonnull align 8 dereferenceable(48) %2, ptr noundef %4)
          to label %_ZNSt3mapINSt7__cxx1112basic_stringIcSt11char_traitsIcESaIcEEEcSt4lessIS5_ESaISt4pairIKS5_cEEED2Ev.exit.i unwind label %5

5:                                                ; preds = %1
  %6 = landingpad { ptr, i32 }
          catch ptr null
  %7 = extractvalue { ptr, i32 } %6, 0
  tail call void @__clang_call_terminate(ptr %7) #30
  unreachable

_ZNSt3mapINSt7__cxx1112basic_stringIcSt11char_traitsIcESaIcEEEcSt4lessIS5_ESaISt4pairIKS5_cEEED2Ev.exit.i: ; preds = %1
  %8 = getelementptr inbounds nuw i8, ptr %0, i64 8
  %9 = load i32, ptr %8, align 8, !tbaa !19
  %10 = load i8, ptr @_ZN5Yosys5RTLIL8IdString17destruct_guard_okE, align 1, !tbaa !22, !range !24, !noundef !25
  %11 = trunc nuw i8 %10 to i1
  %12 = icmp ne i32 %9, 0
  %or.cond.i.i.i = and i1 %12, %11
  br i1 %or.cond.i.i.i, label %13, label %_ZN12_GLOBAL__N_112cell_mappingD2Ev.exit

13:                                               ; preds = %_ZNSt3mapINSt7__cxx1112basic_stringIcSt11char_traitsIcESaIcEEEcSt4lessIS5_ESaISt4pairIKS5_cEEED2Ev.exit.i
  %14 = sext i32 %9 to i64
  %15 = load ptr, ptr @_ZN5Yosys5RTLIL8IdString24global_refcount_storage_E, align 8, !tbaa !26
  %16 = getelementptr inbounds nuw i32, ptr %15, i64 %14
  %17 = load i32, ptr %16, align 4, !tbaa !29
  %18 = add nsw i32 %17, -1
  store i32 %18, ptr %16, align 4, !tbaa !29
  %19 = icmp sgt i32 %17, 1
  br i1 %19, label %_ZN12_GLOBAL__N_112cell_mappingD2Ev.exit, label %20

20:                                               ; preds = %13
  invoke void @_ZN5Yosys5RTLIL8IdString14free_referenceEi(i32 noundef %9)
          to label %._ZN12_GLOBAL__N_112cell_mappingD2Ev.exit_crit_edge unwind label %21

._ZN12_GLOBAL__N_112cell_mappingD2Ev.exit_crit_edge: ; preds = %20
  %.pre = load i8, ptr @_ZN5Yosys5RTLIL8IdString17destruct_guard_okE, align 1, !tbaa !22, !range !24
  br label %_ZN12_GLOBAL__N_112cell_mappingD2Ev.exit

21:                                               ; preds = %20
  %22 = landingpad { ptr, i32 }
          catch ptr null
  %23 = extractvalue { ptr, i32 } %22, 0
  tail call void @__clang_call_terminate(ptr %23) #30
  unreachable

_ZN12_GLOBAL__N_112cell_mappingD2Ev.exit:         ; preds = %._ZN12_GLOBAL__N_112cell_mappingD2Ev.exit_crit_edge, %_ZNSt3mapINSt7__cxx1112basic_stringIcSt11char_traitsIcESaIcEEEcSt4lessIS5_ESaISt4pairIKS5_cEEED2Ev.exit.i, %13
  %24 = phi i8 [ %.pre, %._ZN12_GLOBAL__N_112cell_mappingD2Ev.exit_crit_edge ], [ %10, %_ZNSt3mapINSt7__cxx1112basic_stringIcSt11char_traitsIcESaIcEEEcSt4lessIS5_ESaISt4pairIKS5_cEEED2Ev.exit.i ], [ 1, %13 ]
  %25 = load i32, ptr %0, align 8, !tbaa !19
  %26 = trunc nuw i8 %24 to i1
  %27 = icmp ne i32 %25, 0
  %or.cond.i.i = and i1 %27, %26
  br i1 %or.cond.i.i, label %28, label %_ZN5Yosys5RTLIL8IdStringD2Ev.exit

28:                                               ; preds = %_ZN12_GLOBAL__N_112cell_mappingD2Ev.exit
  %29 = sext i32 %25 to i64
  %30 = load ptr, ptr @_ZN5Yosys5RTLIL8IdString24global_refcount_storage_E, align 8, !tbaa !26
  %31 = getelementptr inbounds nuw i32, ptr %30, i64 %29
  %32 = load i32, ptr %31, align 4, !tbaa !29
  %33 = add nsw i32 %32, -1
  store i32 %33, ptr %31, align 4, !tbaa !29
  %34 = icmp sgt i32 %32, 1
  br i1 %34, label %_ZN5Yosys5RTLIL8IdStringD2Ev.exit, label %35

35:                                               ; preds = %28
  invoke void @_ZN5Yosys5RTLIL8IdString14free_referenceEi(i32 noundef %25)
          to label %_ZN5Yosys5RTLIL8IdStringD2Ev.exit unwind label %36

36:                                               ; preds = %35
  %37 = landingpad { ptr, i32 }
          catch ptr null
  %38 = extractvalue { ptr, i32 } %37, 0
  tail call void @__clang_call_terminate(ptr %38) #30
  unreachable

_ZN5Yosys5RTLIL8IdStringD2Ev.exit:                ; preds = %_ZN12_GLOBAL__N_112cell_mappingD2Ev.exit, %28, %35
  ret void
}